; Function Attrs: mustprogress nofree norecurse nounwind willreturn memory(argmem: readwrite) uwtable
define void @_ZN6icu_779SpoofData5resetEv(ptr noundef nonnull writeonly align 8 captures(none) dereferenceable(56) initializes((0, 9), (16, 28)) %0) local_unnamed_addr #5 align 2 {
  store ptr null, ptr %0, align 8, !tbaa !29
  %2 = getelementptr inbounds nuw i8, ptr %0, i64 8
  store i8 0, ptr %2, align 8, !tbaa !73
  %3 = getelementptr inbounds nuw i8, ptr %0, i64 16
  store ptr null, ptr %3, align 8, !tbaa !74
  %4 = getelementptr inbounds nuw i8, ptr %0, i64 24
  store i32 0, ptr %4, align 8, !tbaa !75
  %5 = getelementptr inbounds nuw i8, ptr %0, i64 28
  store atomic i32 1, ptr %5 seq_cst, align 4
  %6 = getelementptr inbounds nuw i8, ptr %0, i64 32
  tail call void @llvm.memset.p0.i64(ptr noundef nonnull align 8 dereferenceable(24) %6, i8 0, i64 24, i1 false)
  ret void
}